
max.o:     file format pe-i386


Disassembly of section .text:

00000000 <_main>:
   0:	55                   	push   ebp
   1:	89 e5                	mov    ebp,esp
   3:	83 e4 f0             	and    esp,0xfffffff0
   6:	83 ec 20             	sub    esp,0x20
   9:	e8 00 00 00 00       	call   e <_main+0xe>
   e:	c7 04 24 00 00 00 00 	mov    DWORD PTR [esp],0x0
  15:	e8 00 00 00 00       	call   1a <_main+0x1a>
  1a:	8d 44 24 14          	lea    eax,[esp+0x14]
  1e:	89 44 24 0c          	mov    DWORD PTR [esp+0xc],eax
  22:	8d 44 24 18          	lea    eax,[esp+0x18]
  26:	89 44 24 08          	mov    DWORD PTR [esp+0x8],eax
  2a:	8d 44 24 1c          	lea    eax,[esp+0x1c]
  2e:	89 44 24 04          	mov    DWORD PTR [esp+0x4],eax
  32:	c7 04 24 16 00 00 00 	mov    DWORD PTR [esp],0x16
  39:	e8 00 00 00 00       	call   3e <_main+0x3e>
  3e:	8b 54 24 1c          	mov    edx,DWORD PTR [esp+0x1c]
  42:	8b 44 24 18          	mov    eax,DWORD PTR [esp+0x18]
  46:	39 c2                	cmp    edx,eax
  48:	7c 22                	jl     6c <_main+0x6c>
  4a:	8b 54 24 1c          	mov    edx,DWORD PTR [esp+0x1c]
  4e:	8b 44 24 14          	mov    eax,DWORD PTR [esp+0x14]
  52:	39 c2                	cmp    edx,eax
  54:	7c 16                	jl     6c <_main+0x6c>
  56:	8b 44 24 1c          	mov    eax,DWORD PTR [esp+0x1c]
  5a:	89 44 24 04          	mov    DWORD PTR [esp+0x4],eax
  5e:	c7 04 24 1f 00 00 00 	mov    DWORD PTR [esp],0x1f
  65:	e8 00 00 00 00       	call   6a <_main+0x6a>
  6a:	eb 42                	jmp    ae <_main+0xae>
  6c:	8b 54 24 18          	mov    edx,DWORD PTR [esp+0x18]
  70:	8b 44 24 1c          	mov    eax,DWORD PTR [esp+0x1c]
  74:	39 c2                	cmp    edx,eax
  76:	7c 22                	jl     9a <_main+0x9a>
  78:	8b 54 24 18          	mov    edx,DWORD PTR [esp+0x18]
  7c:	8b 44 24 14          	mov    eax,DWORD PTR [esp+0x14]
  80:	39 c2                	cmp    edx,eax
  82:	7c 16                	jl     9a <_main+0x9a>
  84:	8b 44 24 18          	mov    eax,DWORD PTR [esp+0x18]
  88:	89 44 24 04          	mov    DWORD PTR [esp+0x4],eax
  8c:	c7 04 24 1f 00 00 00 	mov    DWORD PTR [esp],0x1f
  93:	e8 00 00 00 00       	call   98 <_main+0x98>
  98:	eb 14                	jmp    ae <_main+0xae>
  9a:	8b 44 24 14          	mov    eax,DWORD PTR [esp+0x14]
  9e:	89 44 24 04          	mov    DWORD PTR [esp+0x4],eax
  a2:	c7 04 24 1f 00 00 00 	mov    DWORD PTR [esp],0x1f
  a9:	e8 00 00 00 00       	call   ae <_main+0xae>
  ae:	b8 00 00 00 00       	mov    eax,0x0
  b3:	c9                   	leave  
  b4:	c3                   	ret    
  b5:	90                   	nop
  b6:	90                   	nop
  b7:	90                   	nop
